; ModuleID = 'bench/ocio/original/Exception.ll'
source_filename = "bench/ocio/original/Exception.ll"
target datalayout = "e-m:e-p270:32:32-p271:32:32-p272:64:64-i64:64-i128:128-f80:128-n8:16:32:64-S128"
target triple = "x86_64-pc-linux-gnu"

@_ZTVN19OpenColorIO_v2_5dev9ExceptionE = unnamed_addr constant { [5 x ptr] } { [5 x ptr] [ptr null, ptr @_ZTIN19OpenColorIO_v2_5dev9ExceptionE, ptr @_ZN19OpenColorIO_v2_5dev9ExceptionD1Ev, ptr @_ZN19OpenColorIO_v2_5dev9ExceptionD0Ev, ptr @_ZNKSt13runtime_error4whatEv] }, align 8
@_ZTVN19OpenColorIO_v2_5dev20ExceptionMissingFileE = unnamed_addr constant { [5 x ptr] } { [5 x ptr] [ptr null, ptr @_ZTIN19OpenColorIO_v2_5dev20ExceptionMissingFileE, ptr @_ZN19OpenColorIO_v2_5dev20ExceptionMissingFileD1Ev, ptr @_ZN19OpenColorIO_v2_5dev20ExceptionMissingFileD0Ev, ptr @_ZNKSt13runtime_error4whatEv] }, align 8
@_ZTIN19OpenColorIO_v2_5dev9ExceptionE = constant { ptr, ptr, ptr } { ptr getelementptr inbounds (ptr, ptr @_ZTVN10__cxxabiv120__si_class_type_infoE, i64 2), ptr @_ZTSN19OpenColorIO_v2_5dev9ExceptionE, ptr @_ZTISt13runtime_error }, align 8
@_ZTVN10__cxxabiv120__si_class_type_infoE = external global [0 x ptr]
@_ZTSN19OpenColorIO_v2_5dev9ExceptionE = constant [34 x i8] c"N19OpenColorIO_v2_5dev9ExceptionE\00", align 1
@_ZTISt13runtime_error = external constant ptr
@_ZTIN19OpenColorIO_v2_5dev20ExceptionMissingFileE = constant { ptr, ptr, ptr } { ptr getelementptr inbounds (ptr, ptr @_ZTVN10__cxxabiv120__si_class_type_infoE, i64 2), ptr @_ZTSN19OpenColorIO_v2_5dev20ExceptionMissingFileE, ptr @_ZTIN19OpenColorIO_v2_5dev9ExceptionE }, align 8
@_ZTSN19OpenColorIO_v2_5dev20ExceptionMissingFileE = constant [46 x i8] c"N19OpenColorIO_v2_5dev20ExceptionMissingFileE\00", align 1

@_ZN19OpenColorIO_v2_5dev9ExceptionC1EPKc = unnamed_addr alias void (ptr, ptr), ptr @_ZN19OpenColorIO_v2_5dev9ExceptionC2EPKc
@_ZN19OpenColorIO_v2_5dev9ExceptionC1ERKS0_ = unnamed_addr alias void (ptr, ptr), ptr @_ZN19OpenColorIO_v2_5dev9ExceptionC2ERKS0_
@_ZN19OpenColorIO_v2_5dev9ExceptionD1Ev = unnamed_addr alias void (ptr), ptr @_ZN19OpenColorIO_v2_5dev9ExceptionD2Ev
@_ZN19OpenColorIO_v2_5dev20ExceptionMissingFileC1EPKc = unnamed_addr alias void (ptr, ptr), ptr @_ZN19OpenColorIO_v2_5dev20ExceptionMissingFileC2EPKc
@_ZN19OpenColorIO_v2_5dev20ExceptionMissingFileC1ERKS0_ = unnamed_addr alias void (ptr, ptr), ptr @_ZN19OpenColorIO_v2_5dev20ExceptionMissingFileC2ERKS0_
@_ZN19OpenColorIO_v2_5dev20ExceptionMissingFileD2Ev = unnamed_addr alias void (ptr), ptr @_ZN19OpenColorIO_v2_5dev9ExceptionD2Ev
@_ZN19OpenColorIO_v2_5dev20ExceptionMissingFileD1Ev = unnamed_addr alias void (ptr), ptr @_ZN19OpenColorIO_v2_5dev20ExceptionMissingFileD2Ev

; Function Attrs: mustprogress uwtable
define void @_ZN19OpenColorIO_v2_5dev9ExceptionC2EPKc(ptr noundef nonnull align 8 dereferenceable(16) %0, ptr noundef %1) unnamed_addr #0 align 2 {
  tail call void @_ZNSt13runtime_errorC2EPKc(ptr noundef nonnull align 8 dereferenceable(16) %0, ptr noundef %1)
  store ptr getelementptr inbounds nuw inrange(-16, 24) (i8, ptr @_ZTVN19OpenColorIO_v2_5dev9ExceptionE, i64 16), ptr %0, align 8, !tbaa !3
  ret void
}

declare void @_ZNSt13runtime_errorC2EPKc(ptr noundef nonnull align 8 dereferenceable(16), ptr noundef) unnamed_addr #1

; Function Attrs: mustprogress nounwind uwtable
define void @_ZN19OpenColorIO_v2_5dev9ExceptionC2ERKS0_(ptr noundef nonnull align 8 dereferenceable(16) %0, ptr noundef nonnull align 8 dereferenceable(16) %1) unnamed_addr #2 align 2 {
  tail call void @_ZNSt13runtime_errorC2ERKS_(ptr noundef nonnull align 8 dereferenceable(16) %0, ptr noundef nonnull align 8 dereferenceable(16) %1) #5
  store ptr getelementptr inbounds nuw inrange(-16, 24) (i8, ptr @_ZTVN19OpenColorIO_v2_5dev9ExceptionE, i64 16), ptr %0, align 8, !tbaa !3
  ret void
}

; Function Attrs: nounwind
declare void @_ZNSt13runtime_errorC2ERKS_(ptr noundef nonnull align 8 dereferenceable(16), ptr noundef nonnull align 8 dereferenceable(16)) unnamed_addr #3

; Function Attrs: nounwind
declare void @_ZNSt13runtime_errorD2Ev(ptr noundef nonnull align 8 dereferenceable(16)) unnamed_addr #3

; Function Attrs: mustprogress nounwind uwtable
define void @_ZN19OpenColorIO_v2_5dev9ExceptionD2Ev(ptr noundef nonnull align 8 dereferenceable(16) %0) unnamed_addr #2 align 2 {
  tail call void @_ZNSt13runtime_errorD2Ev(ptr noundef nonnull align 8 dereferenceable(16) %0) #5
  ret void
}

; Function Attrs: mustprogress nounwind uwtable
define void @_ZN19OpenColorIO_v2_5dev9ExceptionD0Ev(ptr noundef nonnull align 8 dereferenceable(16) %0) unnamed_addr #2 align 2 {
  tail call void @_ZN19OpenColorIO_v2_5dev9ExceptionD1Ev(ptr noundef nonnull align 8 dereferenceable(16) %0) #5
  tail call void @_ZdlPvm(ptr noundef nonnull %0, i64 noundef 16) #6
  ret void
}

; Function Attrs: nobuiltin nounwind
declare void @_ZdlPvm(ptr noundef, i64 noundef) local_unnamed_addr #4

; Function Attrs: mustprogress uwtable
define void @_ZN19OpenColorIO_v2_5dev20ExceptionMissingFileC2EPKc(ptr noundef nonnull align 8 dereferenceable(16) %0, ptr noundef %1) unnamed_addr #0 align 2 {
  tail call void @_ZNSt13runtime_errorC2EPKc(ptr noundef nonnull align 8 dereferenceable(16) %0, ptr noundef %1)
  store ptr getelementptr inbounds nuw inrange(-16, 24) (i8, ptr @_ZTVN19OpenColorIO_v2_5dev20ExceptionMissingFileE, i64 16), ptr %0, align 8, !tbaa !3
  ret void
}

; Function Attrs: mustprogress nounwind uwtable
define void @_ZN19OpenColorIO_v2_5dev20ExceptionMissingFileC2ERKS0_(ptr noundef nonnull align 8 dereferenceable(16) %0, ptr noundef nonnull align 8 dereferenceable(16) %1) unnamed_addr #2 align 2 {
  tail call void @_ZNSt13runtime_errorC2ERKS_(ptr noundef nonnull align 8 dereferenceable(16) %0, ptr noundef nonnull align 8 dereferenceable(16) %1) #5
  store ptr getelementptr inbounds nuw inrange(-16, 24) (i8, ptr @_ZTVN19OpenColorIO_v2_5dev20ExceptionMissingFileE, i64 16), ptr %0, align 8, !tbaa !3
  ret void
}

; Function Attrs: mustprogress nounwind uwtable
define void @_ZN19OpenColorIO_v2_5dev20ExceptionMissingFileD0Ev(ptr noundef nonnull align 8 dereferenceable(16) %0) unnamed_addr #2 align 2 {
  tail call void @_ZN19OpenColorIO_v2_5dev20ExceptionMissingFileD1Ev(ptr noundef nonnull align 8 dereferenceable(16) %0) #5
  tail call void @_ZdlPvm(ptr noundef nonnull %0, i64 noundef 16) #6
  ret void
}

; Function Attrs: nounwind
declare noundef ptr @_ZNKSt13runtime_error4whatEv(ptr noundef nonnull align 8 dereferenceable(16)) unnamed_addr #3


!llvm.module.flags = !{!0, !1, !2}

!0 = !{i32 1, !"wchar_size", i32 4}
!1 = !{i32 8, !"PIC Level", i32 2}
!2 = !{i32 7, !"uwtable", i32 2}
!3 = !{!4, !4, i64 0}
!4 = !{!"vtable pointer", !5, i64 0}
!5 = !{!"Simple C++ TBAA"}
